target datalayout = "e-m:e-p270:32:32-p271:32:32-p272:64:64-i64:64-i128:128-f80:128-n8:16:32:64-S128"
target triple = "x86_64-pc-linux-gnu"

@.str.29 = private unnamed_addr constant [8 x i8] c"integer\00", align 1
@.str.30 = private unnamed_addr constant [6 x i8] c"float\00", align 1

; Function Attrs: nounwind uwtable
define internal i32 @math_type(ptr noundef %0) #0 {
  %2 = alloca ptr, align 8
  store ptr %0, ptr %2, align 8, !tbaa !4
  %3 = load ptr, ptr %2, align 8, !tbaa !4
  %4 = call i32 @lua_type(ptr noundef %3, i32 noundef 1)
  %5 = icmp eq i32 %4, 3
  br i1 %5, label %6, label %13

6:                                                ; preds = %1
  %7 = load ptr, ptr %2, align 8, !tbaa !4
  %8 = load ptr, ptr %2, align 8, !tbaa !4
  %9 = call i32 @lua_isinteger(ptr noundef %8, i32 noundef 1)
  %10 = icmp ne i32 %9, 0
  %11 = select i1 %10, ptr @.str.29, ptr @.str.30
  %12 = call ptr @lua_pushstring(ptr noundef %7, ptr noundef %11)
  br label %16

13:                                               ; preds = %1
  %14 = load ptr, ptr %2, align 8, !tbaa !4
  call void @luaL_checkany(ptr noundef %14, i32 noundef 1)
  %15 = load ptr, ptr %2, align 8, !tbaa !4
  call void @lua_pushnil(ptr noundef %15)
  br label %16

16:                                               ; preds = %13, %6
  ret i32 1
}