; Function Attrs: nounwind uwtable
define internal noundef i32 @math_type(ptr noundef %0) #0 {
  %2 = tail call i32 @lua_type(ptr noundef %0, i32 noundef 1) #6
  %3 = icmp eq i32 %2, 3
  br i1 %3, label %4, label %8

4:                                                ; preds = %1
  %5 = tail call i32 @lua_isinteger(ptr noundef %0, i32 noundef 1) #6
  %.not = icmp eq i32 %5, 0
  %6 = select i1 %.not, ptr @.str.30, ptr @.str.29
  %7 = tail call ptr @lua_pushstring(ptr noundef %0, ptr noundef nonnull %6) #6
  br label %9

8:                                                ; preds = %1
  tail call void @luaL_checkany(ptr noundef %0, i32 noundef 1) #6
  tail call void @lua_pushnil(ptr noundef %0) #6
  br label %9

9:                                                ; preds = %8, %4
  ret i32 1
}